(i__main__
LogFile
p0
(dp1
S'_installed_files'
p2
(dp3
S'../../../Examples/UseCase/amd64_linux26/libUseCase.so'
p4
S'../../../InstallArea/amd64_linux26/lib/libUseCase.so'
p5
sS'../../Examples/UseCase/UseCase'
p6
(dp7
S'../../../Examples/UseCase/UseCase/Alg2.h'
p8
S'../../../InstallArea/include/UseCase/Alg2.h'
p9
sS'../../../Examples/UseCase/UseCase/Alg3.h'
p10
S'../../../InstallArea/include/UseCase/Alg3.h'
p11
sS'../../../Examples/UseCase/UseCase/Alg6.h'
p12
S'../../../InstallArea/include/UseCase/Alg6.h'
p13
sS'../../../Examples/UseCase/UseCase/Alg4.h'
p14
S'../../../InstallArea/include/UseCase/Alg4.h'
p15
sS'../../../Examples/UseCase/UseCase/Alg1.h'
p16
S'../../../InstallArea/include/UseCase/Alg1.h'
p17
sS'../../../Examples/UseCase/UseCase/CommonAlgTool.h'
p18
S'../../../InstallArea/include/UseCase/CommonAlgTool.h'
p19
sS'../../../Examples/UseCase/UseCase/Alg5.h'
p20
S'../../../InstallArea/include/UseCase/Alg5.h'
p21
ssS'../Examples/UseCase/python'
p22
(dp23
S'../../../Examples/UseCase/python/UseCase/__init__.py'
p24
S'../../../InstallArea/python/UseCase/__init__.py'
p25
sssb.