(i__main__
LogFile
p0
(dp1
S'_installed_files'
p2
(dp3
S'../../ALPDataIO/amd64_linux26/libALPDataIO.so'
p4
S'../../InstallArea/amd64_linux26/lib/libALPDataIO.so'
p5
sS'../../ALPDataIO/include'
p6
(dp7
S'../../ALPDataIO/include/ALPCommonUtil.h'
p8
S'../../InstallArea/include/ALPDataIO/ALPCommonUtil.h'
p9
sS'../ALPDataIO/python'
p10
(dp11
S'../../../ALPDataIO/python/ALPDataIO/__init__.py'
p12
S'../../InstallArea/python/ALPDataIO/__init__.py'
p13
sssb.
