(i__main__
LogFile
p0
(dp1
S'_installed_files'
p2
(dp3
S'../../ALPDataIO/ALPDataIO'
p4
(dp5
S'../../../../ALPDataIO/ALPDataIO/datamodel/ExampleWithNamespaceObj.h'
p6
S'../../InstallArea/include/ALPDataIO/datamodel/ExampleWithNamespaceObj.h'
p7
sS'../../../../ALPDataIO/ALPDataIO/datamodel/ExampleWithVectorMemberCollection.h'
p8
S'../../InstallArea/include/ALPDataIO/datamodel/ExampleWithVectorMemberCollection.h'
p9
sS'../../../../ALPDataIO/ALPDataIO/datamodel/SimpleStruct.h'
p10
S'../../InstallArea/include/ALPDataIO/datamodel/SimpleStruct.h'
p11
sS'../../../../ALPDataIO/ALPDataIO/datamodel/ExampleWithVectorMemberObj.h'
p12
S'../../InstallArea/include/ALPDataIO/datamodel/ExampleWithVectorMemberObj.h'
p13
sS'../../../../ALPDataIO/ALPDataIO/datamodel/ExampleWithNamespace.h'
p14
S'../../InstallArea/include/ALPDataIO/datamodel/ExampleWithNamespace.h'
p15
sS'../../../../ALPDataIO/ALPDataIO/datamodel/ExampleHitCollection.h'
p16
S'../../InstallArea/include/ALPDataIO/datamodel/ExampleHitCollection.h'
p17
sS'../../../../ALPDataIO/ALPDataIO/datamodel/ExampleForCyclicDependency1Collection.h'
p18
S'../../InstallArea/include/ALPDataIO/datamodel/ExampleForCyclicDependency1Collection.h'
p19
sS'../../../../ALPDataIO/ALPDataIO/datamodel/ExampleWithComponentCollection.h'
p20
S'../../InstallArea/include/ALPDataIO/datamodel/ExampleWithComponentCollection.h'
p21
sS'../../../../ALPDataIO/ALPDataIO/datamodel/ExampleForCyclicDependency1Const.h'
p22
S'../../InstallArea/include/ALPDataIO/datamodel/ExampleForCyclicDependency1Const.h'
p23
sS'../../../../ALPDataIO/ALPDataIO/datamodel/selection.xml'
p24
S'../../InstallArea/include/ALPDataIO/datamodel/selection.xml'
p25
sS'../../../ALPDataIO/ALPDataIO/ALPFileInputSvc.h'
p26
S'../../InstallArea/include/ALPDataIO/ALPFileInputSvc.h'
p27
sS'../../../../ALPDataIO/ALPDataIO/datamodel/ExampleMCData.h'
p28
S'../../InstallArea/include/ALPDataIO/datamodel/ExampleMCData.h'
p29
sS'../../../../ALPDataIO/ALPDataIO/datamodel/ExampleWithString.h'
p30
S'../../InstallArea/include/ALPDataIO/datamodel/ExampleWithString.h'
p31
sS'../../../../ALPDataIO/ALPDataIO/datamodel/ExampleWithNamespaceConst.h'
p32
S'../../InstallArea/include/ALPDataIO/datamodel/ExampleWithNamespaceConst.h'
p33
sS'../../../ALPDataIO/ALPDataIO/ALPCommonUtil.h'
p34
S'../../InstallArea/include/ALPDataIO/ALPCommonUtil.h'
p35
sS'../../../../ALPDataIO/ALPDataIO/datamodel/ExampleWithComponentObj.h'
p36
S'../../InstallArea/include/ALPDataIO/datamodel/ExampleWithComponentObj.h'
p37
sS'../../../../ALPDataIO/ALPDataIO/datamodel/ExampleCluster.h'
p38
S'../../InstallArea/include/ALPDataIO/datamodel/ExampleCluster.h'
p39
sS'../../../../ALPDataIO/ALPDataIO/datamodel/EventInfoCollection.h'
p40
S'../../InstallArea/include/ALPDataIO/datamodel/EventInfoCollection.h'
p41
sS'../../../../ALPDataIO/ALPDataIO/datamodel/ExampleWithOneRelationConst.h'
p42
S'../../InstallArea/include/ALPDataIO/datamodel/ExampleWithOneRelationConst.h'
p43
sS'../../../../ALPDataIO/ALPDataIO/datamodel/ExampleReferencingType.h'
p44
S'../../InstallArea/include/ALPDataIO/datamodel/ExampleReferencingType.h'
p45
sS'../../../../ALPDataIO/ALPDataIO/datamodel/EventInfoObj.h'
p46
S'../../InstallArea/include/ALPDataIO/datamodel/EventInfoObj.h'
p47
sS'../../../../ALPDataIO/ALPDataIO/datamodel/ExampleWithOneRelationData.h'
p48
S'../../InstallArea/include/ALPDataIO/datamodel/ExampleWithOneRelationData.h'
p49
sS'../../../../ALPDataIO/ALPDataIO/datamodel/ExampleForCyclicDependency1.h'
p50
S'../../InstallArea/include/ALPDataIO/datamodel/ExampleForCyclicDependency1.h'
p51
sS'../../../../ALPDataIO/ALPDataIO/datamodel/ExampleClusterObj.h'
p52
S'../../InstallArea/include/ALPDataIO/datamodel/ExampleClusterObj.h'
p53
sS'../../../../ALPDataIO/ALPDataIO/datamodel/ExampleWithComponentData.h'
p54
S'../../InstallArea/include/ALPDataIO/datamodel/ExampleWithComponentData.h'
p55
sS'../../../../ALPDataIO/ALPDataIO/datamodel/EventInfoData.h'
p56
S'../../InstallArea/include/ALPDataIO/datamodel/EventInfoData.h'
p57
sS'../../../../ALPDataIO/ALPDataIO/datamodel/ExampleWithARelationObj.h'
p58
S'../../InstallArea/include/ALPDataIO/datamodel/ExampleWithARelationObj.h'
p59
sS'../../../../ALPDataIO/ALPDataIO/datamodel/ExampleWithVectorMember.h'
p60
S'../../InstallArea/include/ALPDataIO/datamodel/ExampleWithVectorMember.h'
p61
sS'../../../ALPDataIO/ALPDataIO/ALPEventDataModel.h'
p62
S'../../InstallArea/include/ALPDataIO/ALPEventDataModel.h'
p63
sS'../../../../ALPDataIO/ALPDataIO/datamodel/ExampleHitData.h'
p64
S'../../InstallArea/include/ALPDataIO/datamodel/ExampleHitData.h'
p65
sS'../../../../ALPDataIO/ALPDataIO/datamodel/ExampleMCObj.h'
p66
S'../../InstallArea/include/ALPDataIO/datamodel/ExampleMCObj.h'
p67
sS'../../../../ALPDataIO/ALPDataIO/datamodel/EventInfoConst.h'
p68
S'../../InstallArea/include/ALPDataIO/datamodel/EventInfoConst.h'
p69
sS'../../../../ALPDataIO/ALPDataIO/datamodel/ExampleWithStringObj.h'
p70
S'../../InstallArea/include/ALPDataIO/datamodel/ExampleWithStringObj.h'
p71
sS'../../../../ALPDataIO/ALPDataIO/datamodel/ExampleClusterData.h'
p72
S'../../InstallArea/include/ALPDataIO/datamodel/ExampleClusterData.h'
p73
sS'../../../../ALPDataIO/ALPDataIO/datamodel/ExampleWithArrayCollection.h'
p74
S'../../InstallArea/include/ALPDataIO/datamodel/ExampleWithArrayCollection.h'
p75
sS'../../../../ALPDataIO/ALPDataIO/datamodel/ExampleReferencingTypeConst.h'
p76
S'../../InstallArea/include/ALPDataIO/datamodel/ExampleReferencingTypeConst.h'
p77
sS'../../../../ALPDataIO/ALPDataIO/datamodel/ExampleWithNamespaceData.h'
p78
S'../../InstallArea/include/ALPDataIO/datamodel/ExampleWithNamespaceData.h'
p79
sS'../../../../ALPDataIO/ALPDataIO/datamodel/ExampleForCyclicDependency2Collection.h'
p80
S'../../InstallArea/include/ALPDataIO/datamodel/ExampleForCyclicDependency2Collection.h'
p81
sS'../../../../ALPDataIO/ALPDataIO/datamodel/ExampleReferencingTypeObj.h'
p82
S'../../InstallArea/include/ALPDataIO/datamodel/ExampleReferencingTypeObj.h'
p83
sS'../../../../ALPDataIO/ALPDataIO/datamodel/ExampleWithARelationCollection.h'
p84
S'../../InstallArea/include/ALPDataIO/datamodel/ExampleWithARelationCollection.h'
p85
sS'../../../../ALPDataIO/ALPDataIO/datamodel/ExampleWithStringCollection.h'
p86
S'../../InstallArea/include/ALPDataIO/datamodel/ExampleWithStringCollection.h'
p87
sS'../../../../ALPDataIO/ALPDataIO/datamodel/ExampleWithStringConst.h'
p88
S'../../InstallArea/include/ALPDataIO/datamodel/ExampleWithStringConst.h'
p89
sS'../../../../ALPDataIO/ALPDataIO/datamodel/NamespaceStruct.h'
p90
S'../../InstallArea/include/ALPDataIO/datamodel/NamespaceStruct.h'
p91
sS'../../../../ALPDataIO/ALPDataIO/datamodel/ExampleForCyclicDependency2Obj.h'
p92
S'../../InstallArea/include/ALPDataIO/datamodel/ExampleForCyclicDependency2Obj.h'
p93
sS'../../../../ALPDataIO/ALPDataIO/datamodel/ExampleMC.h'
p94
S'../../InstallArea/include/ALPDataIO/datamodel/ExampleMC.h'
p95
sS'../../../../ALPDataIO/ALPDataIO/datamodel/ExampleHitConst.h'
p96
S'../../InstallArea/include/ALPDataIO/datamodel/ExampleHitConst.h'
p97
sS'../../../../ALPDataIO/ALPDataIO/datamodel/ExampleReferencingTypeData.h'
p98
S'../../InstallArea/include/ALPDataIO/datamodel/ExampleReferencingTypeData.h'
p99
sS'../../../../ALPDataIO/ALPDataIO/datamodel/ExampleWithOneRelation.h'
p100
S'../../InstallArea/include/ALPDataIO/datamodel/ExampleWithOneRelation.h'
p101
sS'../../../../ALPDataIO/ALPDataIO/datamodel/ExampleWithARelation.h'
p102
S'../../InstallArea/include/ALPDataIO/datamodel/ExampleWithARelation.h'
p103
sS'../../../../ALPDataIO/ALPDataIO/datamodel/ExampleWithComponentConst.h'
p104
S'../../InstallArea/include/ALPDataIO/datamodel/ExampleWithComponentConst.h'
p105
sS'../../../../ALPDataIO/ALPDataIO/datamodel/ExampleReferencingTypeCollection.h'
p106
S'../../InstallArea/include/ALPDataIO/datamodel/ExampleReferencingTypeCollection.h'
p107
sS'../../../ALPDataIO/ALPDataIO/ALPROOTWriter.h'
p108
S'../../InstallArea/include/ALPDataIO/ALPROOTWriter.h'
p109
sS'../../../../ALPDataIO/ALPDataIO/datamodel/ExampleWithVectorMemberData.h'
p110
S'../../InstallArea/include/ALPDataIO/datamodel/ExampleWithVectorMemberData.h'
p111
sS'../../../../ALPDataIO/ALPDataIO/datamodel/ExampleHit.h'
p112
S'../../InstallArea/include/ALPDataIO/datamodel/ExampleHit.h'
p113
sS'../../../../ALPDataIO/ALPDataIO/datamodel/ExampleForCyclicDependency2.h'
p114
S'../../InstallArea/include/ALPDataIO/datamodel/ExampleForCyclicDependency2.h'
p115
sS'../../../../ALPDataIO/ALPDataIO/datamodel/ExampleHitObj.h'
p116
S'../../InstallArea/include/ALPDataIO/datamodel/ExampleHitObj.h'
p117
sS'../../../../ALPDataIO/ALPDataIO/datamodel/ExampleWithComponent.h'
p118
S'../../InstallArea/include/ALPDataIO/datamodel/ExampleWithComponent.h'
p119
sS'../../../ALPDataIO/ALPDataIO/ALPFileOutputSvc.h'
p120
S'../../InstallArea/include/ALPDataIO/ALPFileOutputSvc.h'
p121
sS'../../../../ALPDataIO/ALPDataIO/datamodel/ExampleMCConst.h'
p122
S'../../InstallArea/include/ALPDataIO/datamodel/ExampleMCConst.h'
p123
sS'../../../../ALPDataIO/ALPDataIO/datamodel/ExampleWithOneRelationObj.h'
p124
S'../../InstallArea/include/ALPDataIO/datamodel/ExampleWithOneRelationObj.h'
p125
sS'../../../../ALPDataIO/ALPDataIO/datamodel/NamespaceInNamespaceStruct.h'
p126
S'../../InstallArea/include/ALPDataIO/datamodel/NamespaceInNamespaceStruct.h'
p127
sS'../../../../ALPDataIO/ALPDataIO/datamodel/ExampleWithARelationConst.h'
p128
S'../../InstallArea/include/ALPDataIO/datamodel/ExampleWithARelationConst.h'
p129
sS'../../../../ALPDataIO/ALPDataIO/datamodel/ExampleForCyclicDependency1Obj.h'
p130
S'../../InstallArea/include/ALPDataIO/datamodel/ExampleForCyclicDependency1Obj.h'
p131
sS'../../../../ALPDataIO/ALPDataIO/datamodel/ExampleWithARelationData.h'
p132
S'../../InstallArea/include/ALPDataIO/datamodel/ExampleWithARelationData.h'
p133
sS'../../../../ALPDataIO/ALPDataIO/datamodel/ExampleForCyclicDependency2Data.h'
p134
S'../../InstallArea/include/ALPDataIO/datamodel/ExampleForCyclicDependency2Data.h'
p135
sS'../../../../ALPDataIO/ALPDataIO/datamodel/ExampleWithArray.h'
p136
S'../../InstallArea/include/ALPDataIO/datamodel/ExampleWithArray.h'
p137
sS'../../../../ALPDataIO/ALPDataIO/datamodel/ExampleWithArrayConst.h'
p138
S'../../InstallArea/include/ALPDataIO/datamodel/ExampleWithArrayConst.h'
p139
sS'../../../../ALPDataIO/ALPDataIO/datamodel/EventInfo.h'
p140
S'../../InstallArea/include/ALPDataIO/datamodel/EventInfo.h'
p141
sS'../../../../ALPDataIO/ALPDataIO/datamodel/ExampleWithOneRelationCollection.h'
p142
S'../../InstallArea/include/ALPDataIO/datamodel/ExampleWithOneRelationCollection.h'
p143
sS'../../../../ALPDataIO/ALPDataIO/datamodel/ExampleWithStringData.h'
p144
S'../../InstallArea/include/ALPDataIO/datamodel/ExampleWithStringData.h'
p145
sS'../../../../ALPDataIO/ALPDataIO/datamodel/ExampleForCyclicDependency2Const.h'
p146
S'../../InstallArea/include/ALPDataIO/datamodel/ExampleForCyclicDependency2Const.h'
p147
sS'../../../../ALPDataIO/ALPDataIO/datamodel/ExampleWithVectorMemberConst.h'
p148
S'../../InstallArea/include/ALPDataIO/datamodel/ExampleWithVectorMemberConst.h'
p149
sS'../../../../ALPDataIO/ALPDataIO/datamodel/ExampleWithArrayObj.h'
p150
S'../../InstallArea/include/ALPDataIO/datamodel/ExampleWithArrayObj.h'
p151
sS'../../../../ALPDataIO/ALPDataIO/datamodel/ExampleWithNamespaceCollection.h'
p152
S'../../InstallArea/include/ALPDataIO/datamodel/ExampleWithNamespaceCollection.h'
p153
sS'../../../../ALPDataIO/ALPDataIO/datamodel/ExampleWithArrayData.h'
p154
S'../../InstallArea/include/ALPDataIO/datamodel/ExampleWithArrayData.h'
p155
sS'../../../../ALPDataIO/ALPDataIO/datamodel/NotSoSimpleStruct.h'
p156
S'../../InstallArea/include/ALPDataIO/datamodel/NotSoSimpleStruct.h'
p157
sS'../../../../ALPDataIO/ALPDataIO/datamodel/ExampleMCCollection.h'
p158
S'../../InstallArea/include/ALPDataIO/datamodel/ExampleMCCollection.h'
p159
sS'../../../../ALPDataIO/ALPDataIO/datamodel/ExampleClusterCollection.h'
p160
S'../../InstallArea/include/ALPDataIO/datamodel/ExampleClusterCollection.h'
p161
sS'../../../../ALPDataIO/ALPDataIO/datamodel/ExampleClusterConst.h'
p162
S'../../InstallArea/include/ALPDataIO/datamodel/ExampleClusterConst.h'
p163
sS'../../../../ALPDataIO/ALPDataIO/datamodel/ExampleForCyclicDependency1Data.h'
p164
S'../../InstallArea/include/ALPDataIO/datamodel/ExampleForCyclicDependency1Data.h'
p165
ssS'../../../ALPDataIO/amd64_linux26/libALPDataIO.so'
p166
S'../../InstallArea/amd64_linux26/lib/libALPDataIO.so'
p167
ssb.